(dp1
S'OriginalConfig'
p2
ccopy_reg
_reconstructor
p3
(cWMCore.Configuration
Configuration
p4
c__builtin__
object
p5
NtRp6
(dp7
S'Site'
p8
g3
(cWMCore.Configuration
ConfigSection
p9
g5
NtRp10
(dp11
S'_internal_documentation'
p12
S''
sS'_internal_settings'
p13
c__builtin__
set
p14
((lp15
S'whitelist'
p16
aS'storageSite'
p17
atRp18
sS'_internal_name'
p19
g8
sS'_internal_docstrings'
p20
(dp21
sS'_internal_children'
p22
g14
((ltRp23
sg17
S'T3_US_Cornell'
p24
sS'_internal_parent_ref'
p25
Nsg16
(lp26
g24
asbsS'_internal_sections'
p27
(lp28
S'General'
p29
aS'JobType'
p30
aS'Data'
p31
ag8
aS'User'
p32
aS'Debug'
p33
asg29
g3
(g9
g5
NtRp34
(dp35
S'transferLogs'
p36
I01
sg12
S''
sg13
g14
((lp37
g36
aS'transferOutputs'
p38
aS'workArea'
p39
aS'requestName'
p40
atRp41
sg19
g29
sg20
(dp42
sg38
I01
sg22
g14
((ltRp43
sg40
S'ttH_Analyzer_ntuple_tau_tau'
p44
sg25
Nsg39
S'crab_projects'
p45
sbsS'_internal_webapps'
p46
(lp47
sg32
g3
(g9
g5
NtRp48
(dp49
g12
S''
sg13
g14
((ltRp50
sg19
g32
sg20
(dp51
sg22
g14
((ltRp52
sg25
NsbsS'_internal_components'
p53
(lp54
sg33
g3
(g9
g5
NtRp55
(dp56
g12
S''
sg13
g14
((ltRp57
sg19
g33
sg20
(dp58
sg22
g14
((ltRp59
sg25
Nsbsg31
g3
(g9
g5
NtRp60
(dp61
S'outputDatasetTag'
p62
g44
sS'publication'
p63
I01
sS'unitsPerJob'
p64
I1
sg12
S''
sg13
g14
((lp65
g62
ag63
ag64
aS'userInputFiles'
p66
aS'splitting'
p67
aS'outLFNDirBase'
p68
aS'outputPrimaryDataset'
p69
atRp70
sg68
S'/store/user/abdatta/'
p71
sg19
g31
sg67
S'FileBased'
p72
sg20
(dp73
sg22
g14
((ltRp74
sg69
S'ttH_Analyzer'
p75
sg25
Nsg66
(lp76
S'/store/mc/RunIIFall15MiniAODv2/ttHJetToTT_M125_13TeV_amcatnloFXFX_madspin_pythia8/MINIAODSIM/PU25nsData2015v1_76X_mcRun2_asymptotic_v12-v3/60000/0C6DA13E-38C8-E511-8F6E-00259055220A.root'
p77
asbsg30
g3
(g9
g5
NtRp78
(dp79
g12
S''
sg13
g14
((lp80
S'psetName'
p81
aS'pluginName'
p82
atRp83
sg19
g30
sg20
(dp84
sg82
S'Analysis'
p85
sg22
g14
((ltRp86
sg81
S'ttH_analyzer/test/CU_ttH_EDA_cfg.py'
p87
sg25
NsbsbsS'voGroup'
p88
S''
sS'Server'
p89
S'cmsweb.cern.ch'
p90
sS'instance'
p91
S'prod'
p92
sS'RequestName'
p93
S'160526_014815:abdatta_crab_ttH_Analyzer_ntuple_tau_tau'
p94
sS'voRole'
p95
S'NULL'
p96
sS'Port'
p97
S''
s.