ccopy_reg
_reconstructor
p0
(cFWCore.ParameterSet.Config
Process
p1
c__builtin__
object
p2
Ntp3
Rp4
(dp5
S'MessageLogger'
p6
g0
(cFWCore.ParameterSet.Modules
Service
p7
g2
Ntp8
Rp9
(dp10
S'_isFrozen'
p11
I00
sS'suppressInfo'
p12
g0
(cFWCore.ParameterSet.Types
vstring
p13
c__builtin__
list
p14
(lp15
tp16
Rp17
(dp18
g11
I00
sS'_ParameterTypeBase__isTracked'
p19
I00
sS'_isModified'
p20
I00
sS'_nPerLine'
p21
I1
sbsS'suppressDebug'
p22
g0
(g13
g14
(lp23
tp24
Rp25
(dp26
g11
I00
sg19
I00
sg20
I00
sg21
I1
sbsS'cout'
p27
g0
(cFWCore.ParameterSet.Types
PSet
p28
g2
Ntp29
Rp30
(dp31
g11
I00
sg19
I00
sS'placeholder'
p32
g0
(cFWCore.ParameterSet.Types
bool
p33
g2
Ntp34
Rp35
(dp36
g11
I00
sg19
I00
sS'_value'
p37
I01
sg20
I00
sbsg20
I00
sS'_Parameterizable__parameterNames'
p38
(lp39
g32
asbsS'_lineNumber'
p40
I10
sS'debugModules'
p41
g0
(g13
g14
(lp42
tp43
Rp44
(dp45
g11
I00
sg19
I00
sg20
I00
sg21
I1
sbsS'_TypedParameterizable__type'
p46
g6
sS'fwkJobReports'
p47
g0
(g13
g14
(lp48
S'FrameworkJobReport'
p49
atp50
Rp51
(dp52
g11
I00
sg19
I00
sg20
I00
sg21
I1
sbsg38
(lp53
g12
aS'debugs'
p54
ag22
ag27
aS'cerr_stats'
p55
aS'warnings'
p56
aS'default'
p57
aS'statistics'
p58
aS'cerr'
p59
ag49
aS'suppressWarning'
p60
aS'errors'
p61
aS'destinations'
p62
ag41
aS'infos'
p63
aS'categories'
p64
ag47
asg58
g0
(g13
g14
(lp65
g55
atp66
Rp67
(dp68
g11
I00
sg19
I00
sg20
I00
sg21
I1
sbsS'_filename'
p69
S'/cvmfs/cms.cern.ch/slc6_amd64_gcc493/cms/cmssw-patch/CMSSW_7_6_3_patch2/python/FWCore/ParameterSet/Modules.py'
p70
sg62
g0
(g13
g14
(lp71
g56
ag61
ag63
ag54
ag27
ag59
atp72
Rp73
(dp74
g11
I00
sg19
I00
sg20
I00
sg21
I1
sbsg54
g0
(g28
g2
Ntp75
Rp76
(dp77
g11
I00
sg19
I00
sg32
g0
(g33
g2
Ntp78
Rp79
(dp80
g11
I00
sg19
I00
sg37
I01
sg20
I00
sbsg20
I00
sg38
(lp81
g32
asbsg56
g0
(g28
g2
Ntp82
Rp83
(dp84
g11
I00
sg19
I00
sg32
g0
(g33
g2
Ntp85
Rp86
(dp87
g11
I00
sg19
I00
sg37
I01
sg20
I00
sbsg20
I00
sg38
(lp88
g32
asbsg61
g0
(g28
g2
Ntp89
Rp90
(dp91
g11
I00
sg19
I00
sg32
g0
(g33
g2
Ntp92
Rp93
(dp94
g11
I00
sg19
I00
sg37
I01
sg20
I00
sbsg20
I00
sg38
(lp95
g32
asbsg49
g0
(g28
g2
Ntp96
Rp97
(dp98
g11
I00
sg19
I00
sg20
I00
sg57
g0
(g28
g2
Ntp99
Rp100
(dp101
g11
I00
sg19
I00
sS'limit'
p102
g0
(cFWCore.ParameterSet.Types
int32
p103
g2
Ntp104
Rp105
(dp106
g11
I00
sg19
I00
sg37
I0
sg20
I00
sbsg20
I00
sg38
(lp107
g102
asbsS'FwkJob'
p108
g0
(g28
g2
Ntp109
Rp110
(dp111
g11
I00
sg19
I00
sg20
I00
sg102
g0
(g103
g2
Ntp112
Rp113
(dp114
g11
I00
sg19
I00
sg37
I10000000
sg20
I00
sbsg38
(lp115
S'optionalPSet'
p116
ag102
asg116
g0
(g33
g2
Ntp117
Rp118
(dp119
g11
I00
sg19
I00
sg37
I01
sg20
I00
sbsbsg38
(lp120
g57
ag116
ag108
asg116
g0
(g33
g2
Ntp121
Rp122
(dp123
g11
I00
sg19
I00
sg37
I01
sg20
I00
sbsbsg60
g0
(g13
g14
(lp124
tp125
Rp126
(dp127
g11
I00
sg19
I00
sg20
I00
sg21
I1
sbsg63
g0
(g28
g2
Ntp128
Rp129
(dp130
g11
I00
sg19
I00
sg20
I00
sS'Root_NoDictionary'
p131
g0
(g28
g2
Ntp132
Rp133
(dp134
g11
I00
sg19
I00
sg20
I00
sg102
g0
(g103
g2
Ntp135
Rp136
(dp137
g11
I00
sg19
I00
sg37
I0
sg20
I00
sbsg38
(lp138
g116
ag102
asg116
g0
(g33
g2
Ntp139
Rp140
(dp141
g11
I00
sg19
I00
sg37
I01
sg20
I00
sbsbsg38
(lp142
g116
ag131
ag32
asg116
g0
(g33
g2
Ntp143
Rp144
(dp145
g11
I00
sg19
I00
sg37
I01
sg20
I00
sbsg32
g0
(g33
g2
Ntp146
Rp147
(dp148
g11
I00
sg19
I00
sg37
I01
sg20
I00
sbsbsg64
g0
(g13
g14
(lp149
g108
aS'FwkReport'
p150
aS'FwkSummary'
p151
ag131
atp152
Rp153
(dp154
g11
I00
sg19
I00
sg20
I00
sg21
I1
sbsg20
I00
sg55
g0
(g28
g2
Ntp155
Rp156
(dp157
g11
I00
sg19
I00
sg20
I00
sg116
g0
(g33
g2
Ntp158
Rp159
(dp160
g11
I00
sg19
I00
sg37
I01
sg20
I00
sbsg38
(lp161
S'threshold'
p162
aS'output'
p163
ag116
asg162
g0
(cFWCore.ParameterSet.Types
string
p164
g2
Ntp165
Rp166
(dp167
g11
I00
sg19
I00
sg37
S'WARNING'
p168
sg20
I00
sbsg163
g0
(g164
g2
Ntp169
Rp170
(dp171
g11
I00
sg19
I00
sg37
g59
sg20
I00
sbsbsg57
g0
(g28
g2
Ntp172
Rp173
(dp174
g11
I00
sg19
I00
sg20
I00
sg38
(lp175
sbsg59
g0
(g28
g2
Ntp176
Rp177
(dp178
g11
I00
sg19
I00
sS'noTimeStamps'
p179
g0
(g33
g2
Ntp180
Rp181
(dp182
g11
I00
sg19
I00
sg37
I00
sg20
I00
sbsg150
g0
(g28
g2
Ntp183
Rp184
(dp185
g11
I00
sg19
I00
sg20
I01
sS'reportEvery'
p186
g0
(g103
g2
Ntp187
Rp188
(dp189
g11
I00
sg19
I00
sg37
I1000
sg20
I01
sbsg102
g0
(g103
g2
Ntp190
Rp191
(dp192
g11
I00
sg19
I00
sg37
I10000000
sg20
I00
sbsg38
(lp193
g186
ag116
ag102
asg116
g0
(g33
g2
Ntp194
Rp195
(dp196
g11
I00
sg19
I00
sg37
I01
sg20
I00
sbsbsg20
I00
sg57
g0
(g28
g2
Ntp197
Rp198
(dp199
g11
I00
sg19
I00
sg102
g0
(g103
g2
Ntp200
Rp201
(dp202
g11
I00
sg19
I00
sg37
I10000000
sg20
I00
sbsg20
I00
sg38
(lp203
g102
asbsg131
g0
(g28
g2
Ntp204
Rp205
(dp206
g11
I00
sg19
I00
sg20
I00
sg102
g0
(g103
g2
Ntp207
Rp208
(dp209
g11
I00
sg19
I00
sg37
I0
sg20
I00
sbsg38
(lp210
g116
ag102
asg116
g0
(g33
g2
Ntp211
Rp212
(dp213
g11
I00
sg19
I00
sg37
I01
sg20
I00
sbsbsS'INFO'
p214
g0
(g28
g2
Ntp215
Rp216
(dp217
g11
I00
sg19
I00
sg102
g0
(g103
g2
Ntp218
Rp219
(dp220
g11
I00
sg19
I00
sg37
I0
sg20
I00
sbsg20
I00
sg38
(lp221
g102
asbsg116
g0
(g33
g2
Ntp222
Rp223
(dp224
g11
I00
sg19
I00
sg37
I01
sg20
I00
sbsg108
g0
(g28
g2
Ntp225
Rp226
(dp227
g11
I00
sg19
I00
sg20
I00
sg102
g0
(g103
g2
Ntp228
Rp229
(dp230
g11
I00
sg19
I00
sg37
I0
sg20
I00
sbsg38
(lp231
g116
ag102
asg116
g0
(g33
g2
Ntp232
Rp233
(dp234
g11
I00
sg19
I00
sg37
I01
sg20
I00
sbsbsg151
g0
(g28
g2
Ntp235
Rp236
(dp237
g11
I00
sg19
I00
sg20
I00
sg186
g0
(g103
g2
Ntp238
Rp239
(dp240
g11
I00
sg19
I00
sg37
I1
sg20
I00
sbsg102
g0
(g103
g2
Ntp241
Rp242
(dp243
g11
I00
sg19
I00
sg37
I10000000
sg20
I00
sbsg38
(lp244
g186
ag116
ag102
asg116
g0
(g33
g2
Ntp245
Rp246
(dp247
g11
I00
sg19
I00
sg37
I01
sg20
I00
sbsbsg38
(lp248
g214
ag179
ag150
ag57
ag131
ag162
ag108
ag151
ag116
asg162
g0
(g164
g2
Ntp249
Rp250
(dp251
g11
I00
sg19
I00
sg37
g214
sg20
I00
sbsbsbsS'ttHtaus'
p252
g0
(cFWCore.ParameterSet.Modules
EDAnalyzer
p253
g2
Ntp254
Rp255
(dp256
g11
I00
sg40
I71
sS'min_mu_pT'
p257
g0
(cFWCore.ParameterSet.Types
double
p258
g2
Ntp259
Rp260
(dp261
g11
I00
sg19
I01
sg37
F5.0
sg20
I00
sbsS'filter_config_tag'
p262
g0
(g164
g2
Ntp263
Rp264
(dp265
g11
I00
sg19
I01
sg37
S'PAT'
p266
sg20
I00
sbsS'HLT_electron_triggers'
p267
g0
(g13
g14
(lp268
S'HLT_Ele27_eta2p1_WP75_Gsf_v1'
p269
atp270
Rp271
(dp272
g11
I00
sg19
I01
sg20
I00
sg21
I1
sbsS'print_HLT_event_path'
p273
g0
(g33
g2
Ntp274
Rp275
(dp276
g11
I00
sg19
I01
sg37
I00
sg20
I00
sbsS'min_tau_pT'
p277
g0
(g258
g2
Ntp278
Rp279
(dp280
g11
I00
sg19
I01
sg37
F20.0
sg20
I00
sbsS'min_jet_pT'
p281
g0
(g258
g2
Ntp282
Rp283
(dp284
g11
I00
sg19
I01
sg37
F25.0
sg20
I00
sbsS'analysis_type'
p285
g0
(g164
g2
Ntp286
Rp287
(dp288
g11
I00
sg19
I01
sg37
S'tau_ssleptons'
p289
sg20
I00
sbsS'HLT_muon_triggers'
p290
g0
(g13
g14
(lp291
S'HLT_IsoMu24_eta2p1_v1'
p292
atp293
Rp294
(dp295
g11
I00
sg19
I01
sg20
I00
sg21
I1
sbsS'collect_trigger_stats'
p296
g0
(g33
g2
Ntp297
Rp298
(dp299
g11
I00
sg19
I01
sg37
I00
sg20
I00
sbsg38
(lp300
g257
ag262
ag267
ag273
ag277
aS'using_real_data'
p301
ag285
ag290
ag296
aS'max_bjet_eta'
p302
aS'HLT_muon_muon_triggers'
p303
aS'HLT_electron_muon_triggers'
p304
aS'min_ele_pT'
p305
aS'min_njets'
p306
aS'max_jet_eta'
p307
aS'HLT_config_tag'
p308
aS'jet_corrector'
p309
aS'min_bjet_pT'
p310
aS'min_tight_lepton_pT'
p311
ag281
aS'min_nbtags'
p312
aS'b_tag_strength'
p313
aS'verbosity'
p314
aS'input_tags'
p315
aS'HLT_electron_electron_triggers'
p316
asg302
g0
(g258
g2
Ntp317
Rp318
(dp319
g11
I00
sg19
I01
sg37
F2.5
sg20
I00
sbsg69
S'/afs/cern.ch/user/a/abdatta/test/CMSSW_7_6_3_patch2/python/Analyzers/ttH_analyzer/ttHtaus_cfi.py'
p320
sg303
g0
(g13
g14
(lp321
S'HLT_Mu30_TkMu11_v1'
p322
aS'HLT_Mu17_TrkIsoVVL_Mu8_TrkIsoVVL_v1'
p323
aS'HLT_Mu17_TrkIsoVVL_TkMu8_TrkIsoVVL_v1'
p324
atp325
Rp326
(dp327
g11
I00
sg19
I01
sg20
I00
sg21
I1
sbsg304
g0
(g13
g14
(lp328
S'HLT_Mu23_TrkIsoVVL_Ele12_CaloIdL_TrackIdL_IsoVL_v1'
p329
aS'HLT_Mu8_TrkIsoVVL_Ele23_CaloIdL_TrackIdL_IsoVL_v1'
p330
atp331
Rp332
(dp333
g11
I00
sg19
I01
sg20
I00
sg21
I1
sbsg46
S'CU_ttH_EDA'
p334
sg305
g0
(g258
g2
Ntp335
Rp336
(dp337
g11
I00
sg19
I01
sg37
F7.0
sg20
I00
sbsg306
g0
(g103
g2
Ntp338
Rp339
(dp340
g11
I00
sg19
I01
sg37
I2
sg20
I00
sbsg307
g0
(g258
g2
Ntp341
Rp342
(dp343
g11
I00
sg19
I01
sg37
F2.4
sg20
I00
sbsg308
g0
(g164
g2
Ntp344
Rp345
(dp346
g11
I00
sg19
I01
sg37
S'HLT'
p347
sg20
I00
sbsg309
g0
(g164
g2
Ntp348
Rp349
(dp350
g11
I00
sg19
I01
sg37
S'ak4PFchsL1L2L3'
p351
sg20
I00
sbsg310
g0
(g258
g2
Ntp352
Rp353
(dp354
g11
I00
sg19
I01
sg37
F20.0
sg20
I00
sbsg311
g0
(g258
g2
Ntp355
Rp356
(dp357
g11
I00
sg19
I01
sg37
I20
sg20
I00
sbsg301
g0
(g33
g2
Ntp358
Rp359
(dp360
g11
I00
sg19
I01
sg37
I00
sg20
I00
sbsg312
g0
(g103
g2
Ntp361
Rp362
(dp363
g11
I00
sg19
I01
sg37
I1
sg20
I00
sbsg313
g0
(g164
g2
Ntp364
Rp365
(dp366
g11
I00
sg19
I01
sg37
S'M'
p367
sg20
I00
sbsg20
I00
sg314
g0
(g33
g2
Ntp368
Rp369
(dp370
g11
I00
sg19
I01
sg37
I00
sg20
I00
sbsg315
g0
(g28
g2
Ntp371
Rp372
(dp373
g11
I00
sg19
I01
sS'pv'
p374
g0
(cFWCore.ParameterSet.Types
InputTag
p375
g2
Ntp376
Rp377
(dp378
g11
I00
sg19
I01
sg20
I00
sS'_InputTag__moduleLabel'
p379
S'offlineSlimmedPrimaryVertices'
p380
sS'_InputTag__processName'
p381
S''
p382
sS'_InputTag__productInstance'
p383
g382
sbsg20
I01
sS'mets'
p384
g0
(g375
g2
Ntp385
Rp386
(dp387
g11
I00
sg19
I01
sg20
I00
sg379
S'slimmedMETs'
p388
sg381
g382
sg383
g382
sbsS'prunedgen'
p389
g0
(g375
g2
Ntp390
Rp391
(dp392
g11
I00
sg19
I01
sg20
I00
sg379
S'prunedGenParticles'
p393
sg381
g382
sg383
g382
sbsS'sv'
p394
g0
(g375
g2
Ntp395
Rp396
(dp397
g11
I00
sg19
I01
sg20
I00
sg379
S'slimmedSecondaryVertices'
p398
sg381
g382
sg383
g382
sbsS'taus'
p399
g0
(g375
g2
Ntp400
Rp401
(dp402
g11
I00
sg19
I01
sg20
I00
sg379
S'ttHLeptons'
p403
sg381
g382
sg383
g382
sbsS'electrons'
p404
g0
(g375
g2
Ntp405
Rp406
(dp407
g11
I00
sg19
I01
sg20
I00
sg379
g403
sg381
g382
sg383
g382
sbsS'rho'
p408
g0
(g375
g2
Ntp409
Rp410
(dp411
g11
I00
sg19
I01
sg20
I00
sg379
S'fixedGridRhoFastjetCentralNeutral'
p412
sg381
g382
sg383
g382
sbsg38
(lp413
g384
ag374
aS'beamspot'
p414
ag389
ag394
ag399
ag404
ag408
aS'pileup'
p415
aS'jets'
p416
aS'muons'
p417
aS'pfcand'
p418
aS'packedgen'
p419
asg416
g0
(g375
g2
Ntp420
Rp421
(dp422
g11
I00
sg19
I01
sg20
I00
sg379
S'slimmedJets'
p423
sg381
g382
sg383
g382
sbsg415
g0
(g375
g2
Ntp424
Rp425
(dp426
g11
I00
sg19
I01
sg20
I00
sg379
S'addPileupInfo'
p427
sg381
g382
sg383
g382
sbsg418
g0
(g375
g2
Ntp428
Rp429
(dp430
g11
I00
sg19
I01
sg20
I00
sg379
S'packedPFCandidates'
p431
sg381
g382
sg383
g382
sbsg419
g0
(g375
g2
Ntp432
Rp433
(dp434
g11
I00
sg19
I01
sg20
I00
sg379
S'packedGenParticles'
p435
sg381
g382
sg383
g382
sbsg417
g0
(g375
g2
Ntp436
Rp437
(dp438
g11
I00
sg19
I01
sg20
I00
sg379
g403
sg381
g382
sg383
g382
sbsg414
g0
(g375
g2
Ntp439
Rp440
(dp441
g11
I00
sg19
I01
sg20
I00
sg379
S'offlineBeamSpot'
p442
sg381
g382
sg383
g382
sbsbsg316
g0
(g13
g14
(lp443
S'HLT_Ele23_Ele12_CaloIdL_TrackIdL_IsoVL_v1'
p444
atp445
Rp446
(dp447
g11
I00
sg19
I01
sg20
I00
sg21
I1
sbsS'_Labelable__label'
p448
g252
sbsg403
g0
(cFWCore.ParameterSet.Modules
EDProducer
p449
g2
Ntp450
Rp451
(dp452
g38
(lp453
S'tauMinPt'
p454
aS'rhoParam'
p455
ag399
ag404
aS'muonMinPt'
p456
aS'electronMinPt'
p457
ag416
ag417
asg11
I00
sg20
I01
sg40
I11
sg69
S'/afs/cern.ch/user/a/abdatta/test/CMSSW_7_6_3_patch2/python/ttH/LeptonID/ttHLeptons_cfi.py'
p458
sg454
g0
(g258
g2
Ntp459
Rp460
(dp461
g11
I00
sg19
I01
sg37
F20.0
sg20
I00
sbsg455
g0
(g375
g2
Ntp462
Rp463
(dp464
g11
I00
sg19
I01
sg20
I01
sg379
g412
sg381
g382
sg383
g382
sbsg399
g0
(g375
g2
Ntp465
Rp466
(dp467
g11
I00
sg19
I01
sg20
I00
sg379
S'slimmedTaus'
p468
sg381
g382
sg383
g382
sbsg404
g0
(g375
g2
Ntp469
Rp470
(dp471
g11
I00
sg19
I01
sg20
I00
sg379
S'slimmedElectrons'
p472
sg381
g382
sg383
g382
sbsg448
g403
sg456
g0
(g258
g2
Ntp473
Rp474
(dp475
g11
I00
sg19
I01
sg37
F5.0
sg20
I00
sbsg457
g0
(g258
g2
Ntp476
Rp477
(dp478
g11
I00
sg19
I01
sg37
F7.0
sg20
I00
sbsg416
g0
(g375
g2
Ntp479
Rp480
(dp481
g11
I00
sg19
I01
sg20
I00
sg379
g423
sg381
g382
sg383
g382
sbsg417
g0
(g375
g2
Ntp482
Rp483
(dp484
g11
I00
sg19
I01
sg20
I00
sg379
S'slimmedMuons'
p485
sg381
g382
sg383
g382
sbsg46
S'LeptonIdentifier'
p486
sbsS'mvaConfigsForEleProducer'
p487
g0
(cFWCore.ParameterSet.Types
VPSet
p488
g14
(lp489
g0
(g28
g2
Ntp490
Rp491
(dp492
g11
I00
sg19
I01
sg20
I00
sS'weightFileNames'
p493
g0
(g13
g14
(lp494
S'RecoEgamma/ElectronIdentification/data/PHYS14/EIDmva_EB1_5_oldscenario2phys14_BDT.weights.xml'
p495
aS'RecoEgamma/ElectronIdentification/data/PHYS14/EIDmva_EB2_5_oldscenario2phys14_BDT.weights.xml'
p496
aS'RecoEgamma/ElectronIdentification/data/PHYS14/EIDmva_EE_5_oldscenario2phys14_BDT.weights.xml'
p497
aS'RecoEgamma/ElectronIdentification/data/PHYS14/EIDmva_EB1_10_oldscenario2phys14_BDT.weights.xml'
p498
aS'RecoEgamma/ElectronIdentification/data/PHYS14/EIDmva_EB2_10_oldscenario2phys14_BDT.weights.xml'
p499
aS'RecoEgamma/ElectronIdentification/data/PHYS14/EIDmva_EE_10_oldscenario2phys14_BDT.weights.xml'
p500
atp501
Rp502
(dp503
g11
I00
sg19
I01
sg20
I00
sg21
I1
sbsS'mvaName'
p504
g0
(g164
g2
Ntp505
Rp506
(dp507
g11
I00
sg19
I01
sg37
S'ElectronMVAEstimatorRun2Phys14NonTrig'
p508
sg20
I00
sbsS'mvaTag'
p509
g0
(g164
g2
Ntp510
Rp511
(dp512
g11
I00
sg19
I01
sg37
S'25nsV1'
p513
sg20
I00
sbsg38
(lp514
g504
ag493
ag509
asg448
S'mvaEleID_PHYS14_PU20bx25_nonTrig_V1_producer_config'
p515
sbag0
(g28
g2
Ntp516
Rp517
(dp518
g11
I00
sg19
I01
sS'beamSpot'
p519
g0
(g375
g2
Ntp520
Rp521
(dp522
g11
I00
sg19
I01
sg20
I00
sg379
g442
sg381
g382
sg383
g382
sbsS'conversionsAOD'
p523
g0
(g375
g2
Ntp524
Rp525
(dp526
g11
I00
sg19
I01
sg20
I00
sg379
S'allConversions'
p527
sg381
g382
sg383
g382
sbsS'conversionsMiniAOD'
p528
g0
(g375
g2
Ntp529
Rp530
(dp531
g11
I00
sg19
I01
sg20
I00
sg379
S'reducedEgamma'
p532
sg381
g382
sg383
S'reducedConversions'
p533
sbsg493
g0
(g13
g14
(lp534
S'RecoEgamma/ElectronIdentification/data/Spring15/EIDmva_EB1_5_oldNonTrigSpring15_ConvVarCwoBoolean_TMVA412_FullStatLowPt_PairNegWeightsGlobal_BDT.weights.xml'
p535
aS'RecoEgamma/ElectronIdentification/data/Spring15/EIDmva_EB2_5_oldNonTrigSpring15_ConvVarCwoBoolean_TMVA412_FullStatLowPt_PairNegWeightsGlobal_BDT.weights.xml'
p536
aS'RecoEgamma/ElectronIdentification/data/Spring15/EIDmva_EE_5_oldNonTrigSpring15_ConvVarCwoBoolean_TMVA412_FullStatLowPt_PairNegWeightsGlobal_BDT.weights.xml'
p537
aS'RecoEgamma/ElectronIdentification/data/Spring15/EIDmva_EB1_10_oldNonTrigSpring15_ConvVarCwoBoolean_TMVA412_FullStatLowPt_PairNegWeightsGlobal_BDT.weights.xml'
p538
aS'RecoEgamma/ElectronIdentification/data/Spring15/EIDmva_EB2_10_oldNonTrigSpring15_ConvVarCwoBoolean_TMVA412_FullStatLowPt_PairNegWeightsGlobal_BDT.weights.xml'
p539
aS'RecoEgamma/ElectronIdentification/data/Spring15/EIDmva_EE_10_oldNonTrigSpring15_ConvVarCwoBoolean_TMVA412_FullStatLowPt_PairNegWeightsGlobal_BDT.weights.xml'
p540
atp541
Rp542
(dp543
g11
I00
sg19
I01
sg20
I00
sg21
I1
sbsg504
g0
(g164
g2
Ntp544
Rp545
(dp546
g11
I00
sg19
I01
sg37
S'ElectronMVAEstimatorRun2Spring15NonTrig'
p547
sg20
I00
sbsg509
g0
(g164
g2
Ntp548
Rp549
(dp550
g11
I00
sg19
I01
sg37
g513
sg20
I00
sbsg38
(lp551
g504
ag519
ag523
ag528
ag493
ag509
asg448
S'mvaEleID_Spring15_25ns_nonTrig_V1_producer_config'
p552
sg20
I00
sbag0
(g28
g2
Ntp553
Rp554
(dp555
g11
I00
sg19
I01
sg519
g0
(g375
g2
Ntp556
Rp557
(dp558
g11
I00
sg19
I01
sg20
I00
sg379
g442
sg381
g382
sg383
g382
sbsg523
g0
(g375
g2
Ntp559
Rp560
(dp561
g11
I00
sg19
I01
sg20
I00
sg379
g527
sg381
g382
sg383
g382
sbsg528
g0
(g375
g2
Ntp562
Rp563
(dp564
g11
I00
sg19
I01
sg20
I00
sg379
S'reducedEgamma'
p565
sg381
g382
sg383
S'reducedConversions'
p566
sbsg493
g0
(g13
g14
(lp567
S'RecoEgamma/ElectronIdentification/data/Spring15/EIDmva_EB1_10_oldTrigSpring15_50ns_data_1_VarD_TMVA412_Sig6BkgAll_MG_noSpec_BDT.weights.xml'
p568
aS'RecoEgamma/ElectronIdentification/data/Spring15/EIDmva_EB2_10_oldTrigSpring15_50ns_data_1_VarD_TMVA412_Sig6BkgAll_MG_noSpec_BDT.weights.xml'
p569
aS'RecoEgamma/ElectronIdentification/data/Spring15/EIDmva_EE_10_oldTrigSpring15_50ns_data_1_VarD_TMVA412_Sig6BkgAll_MG_noSpec_BDT.weights.xml'
p570
atp571
Rp572
(dp573
g11
I00
sg19
I01
sg20
I00
sg21
I1
sbsg504
g0
(g164
g2
Ntp574
Rp575
(dp576
g11
I00
sg19
I01
sg37
S'ElectronMVAEstimatorRun2Spring15Trig'
p577
sg20
I00
sbsg509
g0
(g164
g2
Ntp578
Rp579
(dp580
g11
I00
sg19
I01
sg37
S'50nsV1'
p581
sg20
I00
sbsg38
(lp582
g504
ag519
ag523
ag528
ag493
ag509
asg448
S'mvaEleID_Spring15_50ns_Trig_V1_producer_config'
p583
sg20
I00
sbag0
(g28
g2
Ntp584
Rp585
(dp586
g11
I00
sg19
I01
sg519
g0
(g375
g2
Ntp587
Rp588
(dp589
g11
I00
sg19
I01
sg20
I00
sg379
g442
sg381
g382
sg383
g382
sbsg523
g0
(g375
g2
Ntp590
Rp591
(dp592
g11
I00
sg19
I01
sg20
I00
sg379
g527
sg381
g382
sg383
g382
sbsg528
g0
(g375
g2
Ntp593
Rp594
(dp595
g11
I00
sg19
I01
sg20
I00
sg379
S'reducedEgamma'
p596
sg381
g382
sg383
S'reducedConversions'
p597
sbsg493
g0
(g13
g14
(lp598
S'RecoEgamma/ElectronIdentification/data/Spring15/EIDmva_EB1_10_oldTrigSpring15_25ns_data_1_VarD_TMVA412_Sig6BkgAll_MG_noSpec_BDT.weights.xml'
p599
aS'RecoEgamma/ElectronIdentification/data/Spring15/EIDmva_EB2_10_oldTrigSpring15_25ns_data_1_VarD_TMVA412_Sig6BkgAll_MG_noSpec_BDT.weights.xml'
p600
aS'RecoEgamma/ElectronIdentification/data/Spring15/EIDmva_EE_10_oldTrigSpring15_25ns_data_1_VarD_TMVA412_Sig6BkgAll_MG_noSpec_BDT.weights.xml'
p601
atp602
Rp603
(dp604
g11
I00
sg19
I01
sg20
I00
sg21
I1
sbsg504
g0
(g164
g2
Ntp605
Rp606
(dp607
g11
I00
sg19
I01
sg37
g577
sg20
I00
sbsg509
g0
(g164
g2
Ntp608
Rp609
(dp610
g11
I00
sg19
I01
sg37
g513
sg20
I00
sbsg38
(lp611
g504
ag519
ag523
ag528
ag493
ag509
asg448
S'mvaEleID_Spring15_25ns_Trig_V1_producer_config'
p612
sg20
I00
sbatp613
Rp614
(dp615
g11
I00
sg19
I01
sg448
g487
sg20
I00
sg21
I1
sbsS'_Process__sequences'
p616
(dp617
sS'CondDBSetup'
p618
g0
(g28
g2
Ntp619
Rp620
(dp621
g11
I00
sg19
I01
sg20
I00
sS'DBParameters'
p622
g0
(g28
g2
Ntp623
Rp624
(dp625
g11
I00
sg19
I01
sS'connectionRetrialPeriod'
p626
g0
(g103
g2
Ntp627
Rp628
(dp629
g11
I00
sg19
I00
sg37
I10
sg20
I00
sbsS'authenticationPath'
p630
g0
(g164
g2
Ntp631
Rp632
(dp633
g11
I00
sg19
I00
sg37
g382
sg20
I00
sbsg20
I00
sS'idleConnectionCleanupPeriod'
p634
g0
(g103
g2
Ntp635
Rp636
(dp637
g11
I00
sg19
I00
sg37
I10
sg20
I00
sbsS'messageLevel'
p638
g0
(g103
g2
Ntp639
Rp640
(dp641
g11
I00
sg19
I00
sg37
I0
sg20
I00
sbsS'enablePoolAutomaticCleanUp'
p642
g0
(g33
g2
Ntp643
Rp644
(dp645
g11
I00
sg19
I00
sg37
I00
sg20
I00
sbsS'enableConnectionSharing'
p646
g0
(g33
g2
Ntp647
Rp648
(dp649
g11
I00
sg19
I00
sg37
I01
sg20
I00
sbsS'enableReadOnlySessionOnUpdateConnection'
p650
g0
(g33
g2
Ntp651
Rp652
(dp653
g11
I00
sg19
I00
sg37
I00
sg20
I00
sbsg38
(lp654
g630
ag650
ag634
ag638
ag642
ag646
aS'connectionRetrialTimeOut'
p655
aS'connectionTimeOut'
p656
aS'authenticationSystem'
p657
ag626
asg656
g0
(g103
g2
Ntp658
Rp659
(dp660
g11
I00
sg19
I00
sg37
I60
sg20
I00
sbsg657
g0
(g103
g2
Ntp661
Rp662
(dp663
g11
I00
sg19
I00
sg37
I0
sg20
I00
sbsg655
g0
(g103
g2
Ntp664
Rp665
(dp666
g11
I00
sg19
I00
sg37
I60
sg20
I00
sbsbsg38
(lp667
g622
asg448
g618
sbsS'_Process__services'
p668
(dp669
g6
g9
sS'TFileService'
p670
g0
(g7
g2
Ntp671
Rp672
(dp673
g38
(lp674
S'fileName'
p675
asg11
I00
sg20
I00
sg40
I10
sg69
g70
sg675
g0
(g164
g2
Ntp676
Rp677
(dp678
g11
I00
sg19
I01
sg37
S'ttHtausNtuple.root'
p679
sg20
I00
sbsg46
g670
sbssS'siStripQualityESProducer'
p680
g0
(cFWCore.ParameterSet.Modules
ESProducer
p681
g2
Ntp682
Rp683
(dp684
g38
(lp685
S'appendToDataLabel'
p686
aS'PrintDebugOutput'
p687
aS'ThresholdForReducedGranularity'
p688
aS'UseEmptyRunInfo'
p689
aS'ReduceGranularity'
p690
aS'ListOfRecordToMerge'
p691
asg11
I00
sg686
g0
(g164
g2
Ntp692
Rp693
(dp694
g11
I00
sg19
I01
sg37
g382
sg20
I00
sbsg20
I01
sg40
I40
sg69
g70
sg688
g0
(g258
g2
Ntp695
Rp696
(dp697
g11
I00
sg19
I01
sg37
F0.3
sg20
I00
sbsg448
g680
sg689
g0
(g33
g2
Ntp698
Rp699
(dp700
g11
I00
sg19
I01
sg37
I00
sg20
I00
sbsg690
g0
(g33
g2
Ntp701
Rp702
(dp703
g11
I00
sg19
I01
sg37
I00
sg20
I00
sbsg691
g0
(g488
g14
(lp704
g0
(g28
g2
Ntp705
Rp706
(dp707
g11
I00
sg19
I01
sg20
I00
sS'record'
p708
g0
(g164
g2
Ntp709
Rp710
(dp711
g11
I00
sg19
I01
sg37
S'SiStripDetVOffRcd'
p712
sg20
I00
sbsS'tag'
p713
g0
(g164
g2
Ntp714
Rp715
(dp716
g11
I00
sg19
I01
sg37
g382
sg20
I00
sbsg38
(lp717
g708
ag713
asbag0
(g28
g2
Ntp718
Rp719
(dp720
g11
I00
sg19
I01
sg20
I00
sg708
g0
(g164
g2
Ntp721
Rp722
(dp723
g11
I00
sg19
I01
sg37
S'SiStripDetCablingRcd'
p724
sg20
I00
sbsg713
g0
(g164
g2
Ntp725
Rp726
(dp727
g11
I00
sg19
I01
sg37
g382
sg20
I00
sbsg38
(lp728
g708
ag713
asbag0
(g28
g2
Ntp729
Rp730
(dp731
g11
I00
sg19
I01
sg20
I00
sg708
g0
(g164
g2
Ntp732
Rp733
(dp734
g11
I00
sg19
I01
sg37
S'RunInfoRcd'
p735
sg20
I00
sbsg713
g0
(g164
g2
Ntp736
Rp737
(dp738
g11
I00
sg19
I01
sg37
g382
sg20
I00
sbsg38
(lp739
g708
ag713
asbag0
(g28
g2
Ntp740
Rp741
(dp742
g11
I00
sg19
I01
sg20
I00
sg708
g0
(g164
g2
Ntp743
Rp744
(dp745
g11
I00
sg19
I01
sg37
S'SiStripBadChannelRcd'
p746
sg20
I00
sbsg713
g0
(g164
g2
Ntp747
Rp748
(dp749
g11
I00
sg19
I01
sg37
g382
sg20
I00
sbsg38
(lp750
g708
ag713
asbag0
(g28
g2
Ntp751
Rp752
(dp753
g11
I00
sg19
I01
sg20
I00
sg708
g0
(g164
g2
Ntp754
Rp755
(dp756
g11
I00
sg19
I01
sg37
S'SiStripBadFiberRcd'
p757
sg20
I00
sbsg713
g0
(g164
g2
Ntp758
Rp759
(dp760
g11
I00
sg19
I01
sg37
g382
sg20
I00
sbsg38
(lp761
g708
ag713
asbag0
(g28
g2
Ntp762
Rp763
(dp764
g11
I00
sg19
I01
sg20
I00
sg708
g0
(g164
g2
Ntp765
Rp766
(dp767
g11
I00
sg19
I01
sg37
S'SiStripBadModuleRcd'
p768
sg20
I00
sbsg713
g0
(g164
g2
Ntp769
Rp770
(dp771
g11
I00
sg19
I01
sg37
g382
sg20
I00
sbsg38
(lp772
g708
ag713
asbag0
(g28
g2
Ntp773
Rp774
(dp775
g11
I00
sg19
I01
sg20
I00
sg708
g0
(g164
g2
Ntp776
Rp777
(dp778
g11
I00
sg19
I01
sg37
S'SiStripBadStripRcd'
p779
sg20
I00
sbsg713
g0
(g164
g2
Ntp780
Rp781
(dp782
g11
I00
sg19
I01
sg37
g382
sg20
I00
sbsg38
(lp783
g708
ag713
asbatp784
Rp785
(dp786
g11
I00
sg19
I01
sg20
I00
sg21
I1
sbsg46
S'SiStripQualityESProducer'
p787
sg687
g0
(g33
g2
Ntp788
Rp789
(dp790
g11
I00
sg19
I01
sg37
I00
sg20
I00
sbsbsS'_Process__source'
p791
g0
(cFWCore.ParameterSet.Modules
Source
p792
g2
Ntp793
Rp794
(dp795
g38
(lp796
S'fileNames'
p797
asg11
I00
sg20
I00
sg40
I175
sg69
g70
sg797
g0
(g13
g14
(lp798
tp799
Rp800
(dp801
g11
I00
sg19
I00
sg20
I00
sg21
I1
sbsg46
S'PoolSource'
p802
sbsS'StripCPEfromTrackAngleESProducer'
p803
g0
(g681
g2
Ntp804
Rp805
(dp806
g38
(lp807
S'ComponentType'
p808
aS'ComponentName'
p809
aS'parameters'
p810
asg11
I00
sg20
I01
sg810
g0
(g28
g2
Ntp811
Rp812
(dp813
g11
I00
sg19
I01
sS'maxChgOneMIP'
p814
g0
(g258
g2
Ntp815
Rp816
(dp817
g11
I00
sg19
I01
sg37
F6000.0
sg20
I00
sbsS'mLC_P2'
p818
g0
(g258
g2
Ntp819
Rp820
(dp821
g11
I00
sg19
I01
sg37
F0.3
sg20
I00
sbsS'mLC_P1'
p822
g0
(g258
g2
Ntp823
Rp824
(dp825
g11
I00
sg19
I01
sg37
F0.618
sg20
I00
sbsS'mLC_P0'
p826
g0
(g258
g2
Ntp827
Rp828
(dp829
g11
I00
sg19
I01
sg37
F-0.326
sg20
I00
sbsS'useLegacyError'
p830
g0
(g33
g2
Ntp831
Rp832
(dp833
g11
I00
sg19
I01
sg37
I00
sg20
I00
sbsS'mTIB_P1'
p834
g0
(g258
g2
Ntp835
Rp836
(dp837
g11
I00
sg19
I01
sg37
F0.202
sg20
I00
sbsS'mTEC_P1'
p838
g0
(g258
g2
Ntp839
Rp840
(dp841
g11
I00
sg19
I01
sg37
F0.471
sg20
I00
sbsS'mTEC_P0'
p842
g0
(g258
g2
Ntp843
Rp844
(dp845
g11
I00
sg19
I01
sg37
F-1.885
sg20
I00
sbsS'mTOB_P0'
p846
g0
(g258
g2
Ntp847
Rp848
(dp849
g11
I00
sg19
I01
sg37
F-1.026
sg20
I00
sbsS'mTOB_P1'
p850
g0
(g258
g2
Ntp851
Rp852
(dp853
g11
I00
sg19
I01
sg37
F0.253
sg20
I00
sbsS'mTIB_P0'
p854
g0
(g258
g2
Ntp855
Rp856
(dp857
g11
I00
sg19
I01
sg37
F-0.742
sg20
I00
sbsg38
(lp858
g814
ag818
ag822
ag826
ag830
ag838
ag842
ag846
ag850
ag854
ag834
aS'mTID_P0'
p859
aS'mTID_P1'
p860
asg859
g0
(g258
g2
Ntp861
Rp862
(dp863
g11
I00
sg19
I01
sg37
F-1.427
sg20
I00
sbsg860
g0
(g258
g2
Ntp864
Rp865
(dp866
g11
I00
sg19
I01
sg37
F0.433
sg20
I00
sbsg20
I00
sbsg40
I4
sg809
g0
(g164
g2
Ntp867
Rp868
(dp869
g11
I00
sg19
I01
sg37
S'StripCPEfromTrackAngle'
p870
sg20
I00
sbsg808
g0
(g164
g2
Ntp871
Rp872
(dp873
g11
I00
sg19
I01
sg37
g870
sg20
I00
sbsg69
S'/cvmfs/cms.cern.ch/slc6_amd64_gcc493/cms/cmssw-patch/CMSSW_7_6_3_patch2/python/RecoLocalTracker/SiStripRecHitConverter/StripCPEfromTrackAngle_cfi.py'
p874
sg448
g803
sg46
S'StripCPEESProducer'
p875
sbsS'_Process__aliases'
p876
(dp877
sS'electronMVAValueMapProducer'
p878
g0
(g449
g2
Ntp879
Rp880
(dp881
g38
(lp882
S'src'
p883
aS'srcMiniAOD'
p884
aS'mvaConfigurations'
p885
asg11
I00
sg884
g0
(g375
g2
Ntp886
Rp887
(dp888
g11
I00
sg19
I01
sg20
I00
sg379
g472
sg381
S'@skipCurrentProcess'
p889
sg383
g382
sbsg20
I00
sg883
g0
(g375
g2
Ntp890
Rp891
(dp892
g11
I00
sg19
I01
sg20
I00
sg379
S'gedGsfElectrons'
p893
sg381
g382
sg383
g382
sbsg69
S'/cvmfs/cms.cern.ch/slc6_amd64_gcc493/cms/cmssw-patch/CMSSW_7_6_3_patch2/python/RecoEgamma/ElectronIdentification/ElectronMVAValueMapProducer_cfi.py'
p894
sg885
g614
sg40
I31
sg448
g878
sg46
S'ElectronMVAValueMapProducer'
p895
sbsg552
g517
sS'mvaEleID_Spring15_25ns_Trig_V1_wp90'
p896
g0
(g28
g2
Ntp897
Rp898
(dp899
g11
I00
sg19
I01
sg20
I01
sS'idName'
p900
g0
(g164
g2
Ntp901
Rp902
(dp903
g11
I00
sg19
I01
sg37
S'mvaEleID-Spring15-25ns-Trig-V1-wp90'
p904
sg20
I00
sbsS'cutFlow'
p905
g0
(g488
g14
(lp906
g0
(g28
g2
Ntp907
Rp908
(dp909
g11
I00
sg19
I01
sS'mvaValueMapName'
p910
g0
(g375
g2
Ntp911
Rp912
(dp913
g11
I00
sg19
I01
sg20
I00
sg379
S'electronMVAValueMapProducer'
p914
sg381
g382
sg383
S'ElectronMVAEstimatorRun2Spring15Trig25nsV1Values'
p915
sbsS'mvaCategoriesMapName'
p916
g0
(g375
g2
Ntp917
Rp918
(dp919
g11
I00
sg19
I01
sg20
I00
sg379
S'electronMVAValueMapProducer'
p920
sg381
g382
sg383
S'ElectronMVAEstimatorRun2Spring15Trig25nsV1Categories'
p921
sbsS'cutName'
p922
g0
(g164
g2
Ntp923
Rp924
(dp925
g11
I00
sg19
I01
sg37
S'GsfEleMVACut'
p926
sg20
I00
sbsS'needsAdditionalProducts'
p927
g0
(g33
g2
Ntp928
Rp929
(dp930
g11
I00
sg19
I01
sg37
I01
sg20
I00
sbsS'mvaCuts'
p931
g0
(cFWCore.ParameterSet.Types
vdouble
p932
g14
(lp933
F0.972153
aF0.922126
aF0.610764
atp934
Rp935
(dp936
g11
I00
sg19
I01
sg20
I00
sbsS'isIgnored'
p937
g0
(g33
g2
Ntp938
Rp939
(dp940
g11
I00
sg19
I01
sg37
I00
sg20
I00
sbsg38
(lp941
g910
ag916
ag922
ag927
ag931
ag937
asg20
I00
sbatp942
Rp943
(dp944
g11
I00
sg19
I01
sg20
I00
sg21
I1
sbsS'isPOGApproved'
p945
g0
(g33
g2
Ntp946
Rp947
(dp948
g11
I00
sg19
I00
sg37
I01
sg20
I00
sbsg38
(lp949
g900
ag905
ag945
asg448
g896
sbsS'ak4PFchsL2Relative'
p950
g0
(g681
g2
Ntp951
Rp952
(dp953
g38
(lp954
S'algorithm'
p955
aS'level'
p956
asg11
I00
sg20
I00
sg955
g0
(g164
g2
Ntp957
Rp958
(dp959
g11
I00
sg19
I01
sg37
S'AK4PFchs'
p960
sg20
I01
sbsg956
g0
(g164
g2
Ntp961
Rp962
(dp963
g11
I00
sg19
I01
sg37
S'L2Relative'
p964
sg20
I00
sbsg69
S'/afs/cern.ch/user/a/abdatta/test/CMSSW_7_6_3_patch2/src/Analyzers/ttH_analyzer/test/CU_ttH_EDA_cfg.py'
p965
sg40
I34
sg448
g950
sg46
S'LXXXCorrectionESProducer'
p966
sbsS'mvaEleID_PHYS14_PU20bx25_nonTrig_V1_wp90'
p967
g0
(g28
g2
Ntp968
Rp969
(dp970
g11
I00
sg19
I01
sg20
I01
sg900
g0
(g164
g2
Ntp971
Rp972
(dp973
g11
I00
sg19
I01
sg37
S'mvaEleID-PHYS14-PU20bx25-nonTrig-V1-wp90'
p974
sg20
I00
sbsg905
g0
(g488
g14
(lp975
g0
(g28
g2
Ntp976
Rp977
(dp978
g11
I00
sg19
I01
sg910
g0
(g375
g2
Ntp979
Rp980
(dp981
g11
I00
sg19
I01
sg20
I00
sg379
S'electronMVAValueMapProducer'
p982
sg381
g382
sg383
S'ElectronMVAEstimatorRun2Phys14NonTrig25nsV1Values'
p983
sbsg916
g0
(g375
g2
Ntp984
Rp985
(dp986
g11
I00
sg19
I01
sg20
I00
sg379
S'electronMVAValueMapProducer'
p987
sg381
g382
sg383
S'ElectronMVAEstimatorRun2Phys14NonTrig25nsV1Categories'
p988
sbsg922
g0
(g164
g2
Ntp989
Rp990
(dp991
g11
I00
sg19
I01
sg37
g926
sg20
I00
sbsg927
g0
(g33
g2
Ntp992
Rp993
(dp994
g11
I00
sg19
I01
sg37
I01
sg20
I00
sbsg931
g0
(g932
g14
(lp995
F-0.483
aF-0.267
aF-0.323
aF0.933
aF0.825
aF0.337
atp996
Rp997
(dp998
g11
I00
sg19
I01
sg20
I00
sbsg937
g0
(g33
g2
Ntp999
Rp1000
(dp1001
g11
I00
sg19
I01
sg37
I00
sg20
I00
sbsg38
(lp1002
g910
ag916
ag922
ag927
ag931
ag937
asg20
I00
sbatp1003
Rp1004
(dp1005
g11
I00
sg19
I01
sg20
I00
sg21
I1
sbsg945
g0
(g33
g2
Ntp1006
Rp1007
(dp1008
g11
I00
sg19
I00
sg37
I00
sg20
I00
sbsg38
(lp1009
g900
ag905
ag945
asg448
g967
sbsS'stripCPEESProducer'
p1010
g0
(g681
g2
Ntp1011
Rp1012
(dp1013
g38
(lp1014
g808
ag809
ag810
asg11
I00
sg20
I00
sg810
g0
(g28
g2
Ntp1015
Rp1016
(dp1017
g11
I00
sg19
I01
sg20
I00
sg38
(lp1018
sbsg40
I40
sg809
g0
(g164
g2
Ntp1019
Rp1020
(dp1021
g11
I00
sg19
I01
sg37
S'stripCPE'
p1022
sg20
I00
sbsg808
g0
(g164
g2
Ntp1023
Rp1024
(dp1025
g11
I00
sg19
I01
sg37
S'SimpleStripCPE'
p1026
sg20
I00
sbsg69
g70
sg448
g1010
sg46
g875
sbsS'EcalLaserCorrectionService'
p1027
g0
(g681
g2
Ntp1028
Rp1029
(dp1030
g38
(lp1031
sg11
I00
sg20
I00
sg40
I40
sg69
g70
sg448
g1027
sg46
g1027
sbsS'_Process__psets'
p1032
(dp1033
g552
g517
sS'HcalReLabel'
p1034
g0
(g28
g2
Ntp1035
Rp1036
(dp1037
g11
I00
sg19
I01
sg20
I00
sS'RelabelRules'
p1038
g0
(g28
g2
Ntp1039
Rp1040
(dp1041
g11
I00
sg19
I00
sg20
I00
sS'Eta16'
p1042
g0
(cFWCore.ParameterSet.Types
vint32
p1043
g14
(lp1044
I1
aI1
aI2
aI2
aI2
aI2
aI2
aI2
aI2
aI3
aI3
aI3
aI3
aI3
aI3
aI3
aI3
aI3
aI3
atp1045
Rp1046
(dp1047
g11
I00
sg19
I00
sg20
I00
sbsS'Eta17'
p1048
g0
(g1043
g14
(lp1049
I1
aI1
aI2
aI2
aI3
aI3
aI3
aI4
aI4
aI4
aI4
aI4
aI5
aI5
aI5
aI5
aI5
aI5
aI5
atp1050
Rp1051
(dp1052
g11
I00
sg19
I00
sg20
I00
sbsS'CorrectPhi'
p1053
g0
(g33
g2
Ntp1054
Rp1055
(dp1056
g11
I00
sg19
I00
sg37
I00
sg20
I00
sbsg38
(lp1057
g1042
ag1048
aS'Eta1'
p1058
ag1053
asg1058
g0
(g1043
g14
(lp1059
I1
aI2
aI2
aI2
aI3
aI3
aI3
aI3
aI3
aI3
aI3
aI3
aI3
aI3
aI3
aI3
aI3
aI3
aI3
atp1060
Rp1061
(dp1062
g11
I00
sg19
I00
sg20
I00
sbsbsg38
(lp1063
g1038
aS'RelabelHits'
p1064
asg448
g1034
sg1064
g0
(g33
g2
Ntp1065
Rp1066
(dp1067
g11
I00
sg19
I00
sg37
I00
sg20
I00
sbsbsg618
g620
sS'mvaEleID_Spring15_50ns_Trig_V1_wp90'
p1068
g0
(g28
g2
Ntp1069
Rp1070
(dp1071
g11
I00
sg19
I01
sg20
I01
sg900
g0
(g164
g2
Ntp1072
Rp1073
(dp1074
g11
I00
sg19
I01
sg37
S'mvaEleID-Spring15-50ns-Trig-V1-wp90'
p1075
sg20
I00
sbsg905
g0
(g488
g14
(lp1076
g0
(g28
g2
Ntp1077
Rp1078
(dp1079
g11
I00
sg19
I01
sg910
g0
(g375
g2
Ntp1080
Rp1081
(dp1082
g11
I00
sg19
I01
sg20
I00
sg379
S'electronMVAValueMapProducer'
p1083
sg381
g382
sg383
S'ElectronMVAEstimatorRun2Spring15Trig50nsV1Values'
p1084
sbsg916
g0
(g375
g2
Ntp1085
Rp1086
(dp1087
g11
I00
sg19
I01
sg20
I00
sg379
S'electronMVAValueMapProducer'
p1088
sg381
g382
sg383
S'ElectronMVAEstimatorRun2Spring15Trig50nsV1Categories'
p1089
sbsg922
g0
(g164
g2
Ntp1090
Rp1091
(dp1092
g11
I00
sg19
I01
sg37
g926
sg20
I00
sbsg927
g0
(g33
g2
Ntp1093
Rp1094
(dp1095
g11
I00
sg19
I01
sg37
I01
sg20
I00
sbsg931
g0
(g932
g14
(lp1096
F0.953843
aF0.849994
aF0.514118
atp1097
Rp1098
(dp1099
g11
I00
sg19
I01
sg20
I00
sbsg937
g0
(g33
g2
Ntp1100
Rp1101
(dp1102
g11
I00
sg19
I01
sg37
I00
sg20
I00
sbsg38
(lp1103
g910
ag916
ag922
ag927
ag931
ag937
asg20
I00
sbatp1104
Rp1105
(dp1106
g11
I00
sg19
I01
sg20
I00
sg21
I1
sbsg945
g0
(g33
g2
Ntp1107
Rp1108
(dp1109
g11
I00
sg19
I00
sg37
I01
sg20
I00
sbsg38
(lp1110
g900
ag905
ag945
asg448
g1068
sbsS'mvaEleID_Spring15_25ns_nonTrig_V1_wp80'
p1111
g0
(g28
g2
Ntp1112
Rp1113
(dp1114
g11
I00
sg19
I01
sg20
I01
sg900
g0
(g164
g2
Ntp1115
Rp1116
(dp1117
g11
I00
sg19
I01
sg37
S'mvaEleID-Spring15-25ns-nonTrig-V1-wp80'
p1118
sg20
I00
sbsg905
g0
(g488
g14
(lp1119
g0
(g28
g2
Ntp1120
Rp1121
(dp1122
g11
I00
sg19
I01
sg910
g0
(g375
g2
Ntp1123
Rp1124
(dp1125
g11
I00
sg19
I01
sg20
I00
sg379
S'electronMVAValueMapProducer'
p1126
sg381
g382
sg383
S'ElectronMVAEstimatorRun2Spring15NonTrig25nsV1Values'
p1127
sbsg916
g0
(g375
g2
Ntp1128
Rp1129
(dp1130
g11
I00
sg19
I01
sg20
I00
sg379
S'electronMVAValueMapProducer'
p1131
sg381
g382
sg383
S'ElectronMVAEstimatorRun2Spring15NonTrig25nsV1Categories'
p1132
sbsg922
g0
(g164
g2
Ntp1133
Rp1134
(dp1135
g11
I00
sg19
I01
sg37
g926
sg20
I00
sbsg927
g0
(g33
g2
Ntp1136
Rp1137
(dp1138
g11
I00
sg19
I01
sg37
I01
sg20
I00
sbsg931
g0
(g932
g14
(lp1139
F0.287435
aF0.221846
aF-0.303263
aF0.967083
aF0.929117
aF0.726311
atp1140
Rp1141
(dp1142
g11
I00
sg19
I01
sg20
I00
sbsg937
g0
(g33
g2
Ntp1143
Rp1144
(dp1145
g11
I00
sg19
I01
sg37
I00
sg20
I00
sbsg38
(lp1146
g910
ag916
ag922
ag927
ag931
ag937
asg20
I00
sbatp1147
Rp1148
(dp1149
g11
I00
sg19
I01
sg20
I00
sg21
I1
sbsg945
g0
(g33
g2
Ntp1150
Rp1151
(dp1152
g11
I00
sg19
I00
sg37
I01
sg20
I00
sbsg38
(lp1153
g900
ag905
ag945
asg448
g1111
sbsg583
g554
sS'mvaEleID_Spring15_50ns_Trig_V1_wp80'
p1154
g0
(g28
g2
Ntp1155
Rp1156
(dp1157
g11
I00
sg19
I01
sg20
I01
sg900
g0
(g164
g2
Ntp1158
Rp1159
(dp1160
g11
I00
sg19
I01
sg37
S'mvaEleID-Spring15-50ns-Trig-V1-wp80'
p1161
sg20
I00
sbsg905
g0
(g488
g14
(lp1162
g0
(g28
g2
Ntp1163
Rp1164
(dp1165
g11
I00
sg19
I01
sg910
g0
(g375
g2
Ntp1166
Rp1167
(dp1168
g11
I00
sg19
I01
sg20
I00
sg379
S'electronMVAValueMapProducer'
p1169
sg381
g382
sg383
S'ElectronMVAEstimatorRun2Spring15Trig50nsV1Values'
p1170
sbsg916
g0
(g375
g2
Ntp1171
Rp1172
(dp1173
g11
I00
sg19
I01
sg20
I00
sg379
S'electronMVAValueMapProducer'
p1174
sg381
g382
sg383
S'ElectronMVAEstimatorRun2Spring15Trig50nsV1Categories'
p1175
sbsg922
g0
(g164
g2
Ntp1176
Rp1177
(dp1178
g11
I00
sg19
I01
sg37
g926
sg20
I00
sbsg927
g0
(g33
g2
Ntp1179
Rp1180
(dp1181
g11
I00
sg19
I01
sg37
I01
sg20
I00
sbsg931
g0
(g932
g14
(lp1182
F0.981841
aF0.946762
aF0.79704
atp1183
Rp1184
(dp1185
g11
I00
sg19
I01
sg20
I00
sbsg937
g0
(g33
g2
Ntp1186
Rp1187
(dp1188
g11
I00
sg19
I01
sg37
I00
sg20
I00
sbsg38
(lp1189
g910
ag916
ag922
ag927
ag931
ag937
asg20
I00
sbatp1190
Rp1191
(dp1192
g11
I00
sg19
I01
sg20
I00
sg21
I1
sbsg945
g0
(g33
g2
Ntp1193
Rp1194
(dp1195
g11
I00
sg19
I00
sg37
I01
sg20
I00
sbsg38
(lp1196
g900
ag905
ag945
asg448
g1154
sbsS'maxEvents'
p1197
g0
(g28
g2
Ntp1198
Rp1199
(dp1200
g11
I00
sg19
I00
sg20
I00
sg38
(lp1201
S'input'
p1202
asg448
g1197
sg1202
g0
(g103
g2
Ntp1203
Rp1204
(dp1205
g11
I00
sg19
I00
sg37
I-1
sg20
I00
sbsbsg515
g491
sg612
g585
sS'mvaEleID_Spring15_25ns_nonTrig_V1_wp90'
p1206
g0
(g28
g2
Ntp1207
Rp1208
(dp1209
g11
I00
sg19
I01
sg20
I01
sg900
g0
(g164
g2
Ntp1210
Rp1211
(dp1212
g11
I00
sg19
I01
sg37
S'mvaEleID-Spring15-25ns-nonTrig-V1-wp90'
p1213
sg20
I00
sbsg905
g0
(g488
g14
(lp1214
g0
(g28
g2
Ntp1215
Rp1216
(dp1217
g11
I00
sg19
I01
sg910
g0
(g375
g2
Ntp1218
Rp1219
(dp1220
g11
I00
sg19
I01
sg20
I00
sg379
S'electronMVAValueMapProducer'
p1221
sg381
g382
sg383
S'ElectronMVAEstimatorRun2Spring15NonTrig25nsV1Values'
p1222
sbsg916
g0
(g375
g2
Ntp1223
Rp1224
(dp1225
g11
I00
sg19
I01
sg20
I00
sg379
S'electronMVAValueMapProducer'
p1226
sg381
g382
sg383
S'ElectronMVAEstimatorRun2Spring15NonTrig25nsV1Categories'
p1227
sbsg922
g0
(g164
g2
Ntp1228
Rp1229
(dp1230
g11
I00
sg19
I01
sg37
g926
sg20
I00
sbsg927
g0
(g33
g2
Ntp1231
Rp1232
(dp1233
g11
I00
sg19
I01
sg37
I01
sg20
I00
sbsg931
g0
(g932
g14
(lp1234
F-0.083313
aF-0.235222
aF-0.67099
aF0.913286
aF0.805013
aF0.358969
atp1235
Rp1236
(dp1237
g11
I00
sg19
I01
sg20
I00
sbsg937
g0
(g33
g2
Ntp1238
Rp1239
(dp1240
g11
I00
sg19
I01
sg37
I00
sg20
I00
sbsg38
(lp1241
g910
ag916
ag922
ag927
ag931
ag937
asg20
I00
sbatp1242
Rp1243
(dp1244
g11
I00
sg19
I01
sg20
I00
sg21
I1
sbsg945
g0
(g33
g2
Ntp1245
Rp1246
(dp1247
g11
I00
sg19
I00
sg37
I01
sg20
I00
sbsg38
(lp1248
g900
ag905
ag945
asg448
g1206
sbsS'mvaEleID_Spring15_25ns_Trig_V1_wp80'
p1249
g0
(g28
g2
Ntp1250
Rp1251
(dp1252
g11
I00
sg19
I01
sg20
I01
sg900
g0
(g164
g2
Ntp1253
Rp1254
(dp1255
g11
I00
sg19
I01
sg37
S'mvaEleID-Spring15-25ns-Trig-V1-wp80'
p1256
sg20
I00
sbsg905
g0
(g488
g14
(lp1257
g0
(g28
g2
Ntp1258
Rp1259
(dp1260
g11
I00
sg19
I01
sg910
g0
(g375
g2
Ntp1261
Rp1262
(dp1263
g11
I00
sg19
I01
sg20
I00
sg379
S'electronMVAValueMapProducer'
p1264
sg381
g382
sg383
S'ElectronMVAEstimatorRun2Spring15Trig25nsV1Values'
p1265
sbsg916
g0
(g375
g2
Ntp1266
Rp1267
(dp1268
g11
I00
sg19
I01
sg20
I00
sg379
S'electronMVAValueMapProducer'
p1269
sg381
g382
sg383
S'ElectronMVAEstimatorRun2Spring15Trig25nsV1Categories'
p1270
sbsg922
g0
(g164
g2
Ntp1271
Rp1272
(dp1273
g11
I00
sg19
I01
sg37
g926
sg20
I00
sbsg927
g0
(g33
g2
Ntp1274
Rp1275
(dp1276
g11
I00
sg19
I01
sg37
I01
sg20
I00
sbsg931
g0
(g932
g14
(lp1277
F0.988153
aF0.96791
aF0.841729
atp1278
Rp1279
(dp1280
g11
I00
sg19
I01
sg20
I00
sbsg937
g0
(g33
g2
Ntp1281
Rp1282
(dp1283
g11
I00
sg19
I01
sg37
I00
sg20
I00
sbsg38
(lp1284
g910
ag916
ag922
ag927
ag931
ag937
asg20
I00
sbatp1285
Rp1286
(dp1287
g11
I00
sg19
I01
sg20
I00
sg21
I1
sbsg945
g0
(g33
g2
Ntp1288
Rp1289
(dp1290
g11
I00
sg19
I00
sg37
I01
sg20
I00
sbsg38
(lp1291
g900
ag905
ag945
asg448
g1249
sbsg896
g898
sS'mvaEleID_PHYS14_PU20bx25_nonTrig_V1_wp80'
p1292
g0
(g28
g2
Ntp1293
Rp1294
(dp1295
g11
I00
sg19
I01
sg20
I01
sg900
g0
(g164
g2
Ntp1296
Rp1297
(dp1298
g11
I00
sg19
I01
sg37
S'mvaEleID-PHYS14-PU20bx25-nonTrig-V1-wp80'
p1299
sg20
I00
sbsg905
g0
(g488
g14
(lp1300
g0
(g28
g2
Ntp1301
Rp1302
(dp1303
g11
I00
sg19
I01
sg910
g0
(g375
g2
Ntp1304
Rp1305
(dp1306
g11
I00
sg19
I01
sg20
I00
sg379
S'electronMVAValueMapProducer'
p1307
sg381
g382
sg383
S'ElectronMVAEstimatorRun2Phys14NonTrig25nsV1Values'
p1308
sbsg916
g0
(g375
g2
Ntp1309
Rp1310
(dp1311
g11
I00
sg19
I01
sg20
I00
sg379
S'electronMVAValueMapProducer'
p1312
sg381
g382
sg383
S'ElectronMVAEstimatorRun2Phys14NonTrig25nsV1Categories'
p1313
sbsg922
g0
(g164
g2
Ntp1314
Rp1315
(dp1316
g11
I00
sg19
I01
sg37
g926
sg20
I00
sbsg927
g0
(g33
g2
Ntp1317
Rp1318
(dp1319
g11
I00
sg19
I01
sg37
I01
sg20
I00
sbsg931
g0
(g932
g14
(lp1320
F-0.253
aF0.081
aF-0.081
aF0.965
aF0.917
aF0.683
atp1321
Rp1322
(dp1323
g11
I00
sg19
I01
sg20
I00
sbsg937
g0
(g33
g2
Ntp1324
Rp1325
(dp1326
g11
I00
sg19
I01
sg37
I00
sg20
I00
sbsg38
(lp1327
g910
ag916
ag922
ag927
ag931
ag937
asg20
I00
sbatp1328
Rp1329
(dp1330
g11
I00
sg19
I01
sg20
I00
sg21
I1
sbsg945
g0
(g33
g2
Ntp1331
Rp1332
(dp1333
g11
I00
sg19
I00
sg37
I00
sg20
I00
sbsg38
(lp1334
g900
ag905
ag945
asg448
g1292
sbsS'options'
p1335
g0
(g28
g2
Ntp1336
Rp1337
(dp1338
g11
I00
sg19
I00
sg20
I00
sS'wantSummary'
p1339
g0
(g33
g2
Ntp1340
Rp1341
(dp1342
g11
I00
sg19
I00
sg37
I01
sg20
I00
sbsg38
(lp1343
g1339
asg448
g1335
sbsg967
g969
ssS'hcal_db_producer'
p1344
g0
(g681
g2
Ntp1345
Rp1346
(dp1347
g38
(lp1348
S'file'
p1349
aS'dump'
p1350
asg11
I00
sg20
I00
sg1350
g0
(g13
g14
(lp1351
g382
atp1352
Rp1353
(dp1354
g11
I00
sg19
I00
sg20
I00
sg21
I1
sbsg40
I40
sg69
g70
sg1349
g0
(g164
g2
Ntp1355
Rp1356
(dp1357
g11
I00
sg19
I00
sg37
g382
sg20
I00
sbsg448
g1344
sg46
S'HcalDbProducer'
p1358
sbsS'source'
p1359
g794
sS'_Process__essources'
p1360
(dp1361
S'es_hardcode'
p1362
g0
(cFWCore.ParameterSet.Modules
ESSource
p1363
g2
Ntp1364
Rp1365
(dp1366
g38
(lp1367
g1034
aS'HERecalibration'
p1368
aS'toGet'
p1369
aS'GainWidthsForTrigPrims'
p1370
aS'HEreCalibCutoff'
p1371
aS'HFRecalibration'
p1372
aS'iLumi'
p1373
aS'hcalTopologyConstants'
p1374
asg11
I00
sg1034
g1036
sg20
I01
sg40
I19
sg1368
g0
(g33
g2
Ntp1375
Rp1376
(dp1377
g11
I00
sg19
I01
sg37
I00
sg20
I00
sbsg1374
g0
(g28
g2
Ntp1378
Rp1379
(dp1380
g11
I00
sg19
I01
sg20
I00
sS'maxDepthHE'
p1381
g0
(g103
g2
Ntp1382
Rp1383
(dp1384
g11
I00
sg19
I01
sg37
I3
sg20
I00
sbsS'maxDepthHB'
p1385
g0
(g103
g2
Ntp1386
Rp1387
(dp1388
g11
I00
sg19
I01
sg37
I2
sg20
I00
sbsg38
(lp1389
g1381
ag1385
aS'mode'
p1390
asg1390
g0
(g164
g2
Ntp1391
Rp1392
(dp1393
g11
I00
sg19
I01
sg37
S'HcalTopologyMode::LHC'
p1394
sg20
I00
sbsbsg1369
g0
(g13
g14
(lp1395
S'GainWidths'
p1396
atp1397
Rp1398
(dp1399
g11
I00
sg19
I00
sg20
I00
sg21
I1
sbsg1370
g0
(g33
g2
Ntp1400
Rp1401
(dp1402
g11
I00
sg19
I01
sg37
I00
sg20
I00
sbsg1371
g0
(g258
g2
Ntp1403
Rp1404
(dp1405
g11
I00
sg19
I01
sg37
F20.0
sg20
I00
sbsg1372
g0
(g33
g2
Ntp1406
Rp1407
(dp1408
g11
I00
sg19
I01
sg37
I00
sg20
I00
sbsg69
S'/cvmfs/cms.cern.ch/slc6_amd64_gcc493/cms/cmssw-patch/CMSSW_7_6_3_patch2/python/CalibCalorimetry/HcalPlugins/Hcal_Conditions_forGlobalTag_cff.py'
p1409
sg448
g1362
sg1373
g0
(g258
g2
Ntp1410
Rp1411
(dp1412
g11
I00
sg19
I01
sg37
F-1.0
sg20
I00
sbsg46
S'HcalHardcodeCalibrations'
p1413
sbsS'GlobalTag'
p1414
g0
(g1363
g2
Ntp1415
Rp1416
(dp1417
g38
(lp1418
g622
ag1369
aS'connect'
p1419
aS'globaltag'
p1420
asg11
I00
sg20
I01
sg1420
g0
(g164
g2
Ntp1421
Rp1422
(dp1423
g11
I00
sg19
I01
sg37
S'76X_mcRun2_asymptotic_v12'
p1424
sg20
I01
sbsg40
I11
sg69
S'/cvmfs/cms.cern.ch/slc6_amd64_gcc493/cms/cmssw-patch/CMSSW_7_6_3_patch2/python/Configuration/StandardSequences/FrontierConditions_GlobalTag_cfi.py'
p1425
sg1369
g0
(g488
g14
(lp1426
tp1427
Rp1428
(dp1429
g11
I00
sg19
I01
sg20
I00
sg21
I1
sbsg622
g0
(g28
g2
Ntp1430
Rp1431
(dp1432
g11
I00
sg19
I01
sg630
g0
(g164
g2
Ntp1433
Rp1434
(dp1435
g11
I00
sg19
I00
sg37
g382
sg20
I00
sbsg626
g0
(g103
g2
Ntp1436
Rp1437
(dp1438
g11
I00
sg19
I00
sg37
I10
sg20
I00
sbsg20
I00
sg634
g0
(g103
g2
Ntp1439
Rp1440
(dp1441
g11
I00
sg19
I00
sg37
I10
sg20
I00
sbsg638
g0
(g103
g2
Ntp1442
Rp1443
(dp1444
g11
I00
sg19
I00
sg37
I0
sg20
I00
sbsg642
g0
(g33
g2
Ntp1445
Rp1446
(dp1447
g11
I00
sg19
I00
sg37
I00
sg20
I00
sbsg646
g0
(g33
g2
Ntp1448
Rp1449
(dp1450
g11
I00
sg19
I00
sg37
I01
sg20
I00
sbsg650
g0
(g33
g2
Ntp1451
Rp1452
(dp1453
g11
I00
sg19
I00
sg37
I00
sg20
I00
sbsg38
(lp1454
g630
ag650
ag634
ag638
ag642
ag646
ag655
ag656
ag657
ag626
asg656
g0
(g103
g2
Ntp1455
Rp1456
(dp1457
g11
I00
sg19
I00
sg37
I60
sg20
I00
sbsg657
g0
(g103
g2
Ntp1458
Rp1459
(dp1460
g11
I00
sg19
I00
sg37
I0
sg20
I00
sbsg655
g0
(g103
g2
Ntp1461
Rp1462
(dp1463
g11
I00
sg19
I00
sg37
I60
sg20
I00
sbsbsg1419
g0
(g164
g2
Ntp1464
Rp1465
(dp1466
g11
I00
sg19
I01
sg37
S'frontier://FrontierProd/CMS_CONDITIONS'
p1467
sg20
I00
sbsg448
g1414
sg46
S'PoolDBESSource'
p1468
sbssg802
g794
sg1154
g1156
sg1197
g1199
sS'ak4PFchsL3Absolute'
p1469
g0
(g681
g2
Ntp1470
Rp1471
(dp1472
g38
(lp1473
g955
ag956
asg11
I00
sg20
I00
sg955
g0
(g164
g2
Ntp1474
Rp1475
(dp1476
g11
I00
sg19
I01
sg37
g960
sg20
I01
sbsg956
g0
(g164
g2
Ntp1477
Rp1478
(dp1479
g11
I00
sg19
I01
sg37
S'L3Absolute'
p1480
sg20
I00
sbsg69
g965
sg40
I36
sg448
g1469
sg46
g966
sbsS'CastorDbProducer'
p1481
g0
(g681
g2
Ntp1482
Rp1483
(dp1484
g38
(lp1485
sg11
I00
sg20
I00
sg40
I40
sg69
g70
sg448
g1481
sg46
g1481
sbsg515
g491
sS'_Process__vpsets'
p1486
(dp1487
g487
g614
ssS'_Process__name'
p1488
S'MAOD'
p1489
sg1362
g1365
sS'es_prefer_hcalHardcode'
p1490
g0
(cFWCore.ParameterSet.Modules
ESPrefer
p1491
g2
Ntp1492
Rp1493
(dp1494
g38
(lp1495
sg11
I00
sg20
I00
sS'_targetLabel'
p1496
g1362
sg40
I73
sg69
g70
sg448
g1490
sg46
g1413
sbsS'ak4PFCHSL1Fastjet'
p1497
g0
(g681
g2
Ntp1498
Rp1499
(dp1500
g38
(lp1501
S'useCondDB'
p1502
aS'srcRho'
p1503
ag955
ag956
asg11
I00
sg1502
g0
(g33
g2
Ntp1504
Rp1505
(dp1506
g11
I00
sg19
I00
sg37
I01
sg20
I00
sbsg20
I00
sg955
g0
(g164
g2
Ntp1507
Rp1508
(dp1509
g11
I00
sg19
I01
sg37
g960
sg20
I00
sbsg956
g0
(g164
g2
Ntp1510
Rp1511
(dp1512
g11
I00
sg19
I01
sg37
S'L1FastJet'
p1513
sg20
I00
sbsg69
g70
sg40
I40
sg1503
g0
(g375
g2
Ntp1514
Rp1515
(dp1516
g11
I00
sg19
I01
sg20
I00
sg379
g412
sg381
g382
sg383
g382
sbsg448
g1497
sg46
S'L1FastjetCorrectionESProducer'
p1517
sbsS'siStripBackPlaneCorrectionDepESProducer'
p1518
g0
(g681
g2
Ntp1519
Rp1520
(dp1521
g38
(lp1522
S'LatencyRecord'
p1523
aS'BackPlaneCorrectionDeconvMode'
p1524
aS'BackPlaneCorrectionPeakMode'
p1525
asg11
I00
sg20
I00
sg40
I40
sg69
g70
sg1523
g0
(g28
g2
Ntp1526
Rp1527
(dp1528
g11
I00
sg19
I01
sg20
I00
sS'label'
p1529
g0
(g164
g2
Ntp1530
Rp1531
(dp1532
g11
I00
sg19
I00
sg37
g382
sg20
I00
sbsg708
g0
(g164
g2
Ntp1533
Rp1534
(dp1535
g11
I00
sg19
I01
sg37
S'SiStripLatencyRcd'
p1536
sg20
I00
sbsg38
(lp1537
g708
ag1529
asbsg1525
g0
(g28
g2
Ntp1538
Rp1539
(dp1540
g11
I00
sg19
I01
sg20
I00
sg1529
g0
(g164
g2
Ntp1541
Rp1542
(dp1543
g11
I00
sg19
I00
sg37
S'peak'
p1544
sg20
I00
sbsg708
g0
(g164
g2
Ntp1545
Rp1546
(dp1547
g11
I00
sg19
I01
sg37
S'SiStripBackPlaneCorrectionRcd'
p1548
sg20
I00
sbsg38
(lp1549
g708
ag1529
asbsg448
g1518
sg1524
g0
(g28
g2
Ntp1550
Rp1551
(dp1552
g11
I00
sg19
I01
sg20
I00
sg1529
g0
(g164
g2
Ntp1553
Rp1554
(dp1555
g11
I00
sg19
I00
sg37
S'deconvolution'
p1556
sg20
I00
sbsg708
g0
(g164
g2
Ntp1557
Rp1558
(dp1559
g11
I00
sg19
I01
sg37
g1548
sg20
I00
sbsg38
(lp1560
g708
ag1529
asbsg46
S'SiStripBackPlaneCorrectionDepESProducer'
p1561
sbsg1034
g1036
sS'_cloneToObjectDict'
p1562
(dp1563
I29996048
g1029
sI31282256
g880
sI31270032
g1113
sI30065872
g1499
sI30036496
g0
(g681
g2
Ntp1564
Rp1565
(dp1566
g38
(lp1567
S'printDebug'
p1568
ag686
aS'APVGain'
p1569
aS'AutomaticNormalization'
p1570
asg11
I00
sg686
g0
(g164
g2
Ntp1571
Rp1572
(dp1573
g11
I00
sg19
I01
sg37
g382
sg20
I00
sbsg20
I00
sg1570
g0
(g33
g2
Ntp1574
Rp1575
(dp1576
g11
I00
sg19
I01
sg37
I00
sg20
I00
sbsg40
I40
sg1568
g0
(g33
g2
Ntp1577
Rp1578
(dp1579
g11
I00
sg19
I00
sg37
I00
sg20
I00
sbsg69
g70
sg1569
g0
(g488
g14
(lp1580
g0
(g28
g2
Ntp1581
Rp1582
(dp1583
g11
I00
sg19
I01
sg20
I00
sS'Label'
p1584
g0
(g164
g2
Ntp1585
Rp1586
(dp1587
g11
I00
sg19
I00
sg37
g382
sg20
I00
sbsS'Record'
p1588
g0
(g164
g2
Ntp1589
Rp1590
(dp1591
g11
I00
sg19
I01
sg37
S'SiStripApvGainRcd'
p1592
sg20
I00
sbsS'NormalizationFactor'
p1593
g0
(g258
g2
Ntp1594
Rp1595
(dp1596
g11
I00
sg19
I00
sg37
F1.0
sg20
I00
sbsg38
(lp1597
g1588
ag1593
ag1584
asbag0
(g28
g2
Ntp1598
Rp1599
(dp1600
g11
I00
sg19
I01
sg20
I00
sg1584
g0
(g164
g2
Ntp1601
Rp1602
(dp1603
g11
I00
sg19
I00
sg37
g382
sg20
I00
sbsg1588
g0
(g164
g2
Ntp1604
Rp1605
(dp1606
g11
I00
sg19
I01
sg37
S'SiStripApvGain2Rcd'
p1607
sg20
I00
sbsg1593
g0
(g258
g2
Ntp1608
Rp1609
(dp1610
g11
I00
sg19
I00
sg37
F1.0
sg20
I00
sbsg38
(lp1611
g1588
ag1593
ag1584
asbatp1612
Rp1613
(dp1614
g11
I00
sg19
I01
sg20
I00
sg21
I1
sbsg448
S'siStripGainESProducer'
p1615
sg46
S'SiStripGainESProducer'
p1616
sbsI30037392
g0
(g681
g2
Ntp1617
Rp1618
(dp1619
g38
(lp1620
g1523
aS'LorentzAngleDeconvMode'
p1621
aS'LorentzAnglePeakMode'
p1622
asg11
I00
sg20
I00
sg40
I40
sg69
g70
sg1523
g0
(g28
g2
Ntp1623
Rp1624
(dp1625
g11
I00
sg19
I01
sg20
I00
sg1529
g0
(g164
g2
Ntp1626
Rp1627
(dp1628
g11
I00
sg19
I00
sg37
g382
sg20
I00
sbsg708
g0
(g164
g2
Ntp1629
Rp1630
(dp1631
g11
I00
sg19
I01
sg37
g1536
sg20
I00
sbsg38
(lp1632
g708
ag1529
asbsg448
S'siStripLorentzAngleDepESProducer'
p1633
sg1622
g0
(g28
g2
Ntp1634
Rp1635
(dp1636
g11
I00
sg19
I01
sg20
I00
sg1529
g0
(g164
g2
Ntp1637
Rp1638
(dp1639
g11
I00
sg19
I00
sg37
g1544
sg20
I00
sbsg708
g0
(g164
g2
Ntp1640
Rp1641
(dp1642
g11
I00
sg19
I01
sg37
S'SiStripLorentzAngleRcd'
p1643
sg20
I00
sbsg38
(lp1644
g708
ag1529
asbsg46
S'SiStripLorentzAngleDepESProducer'
p1645
sg1621
g0
(g28
g2
Ntp1646
Rp1647
(dp1648
g11
I00
sg19
I01
sg20
I00
sg1529
g0
(g164
g2
Ntp1649
Rp1650
(dp1651
g11
I00
sg19
I00
sg37
g1556
sg20
I00
sbsg708
g0
(g164
g2
Ntp1652
Rp1653
(dp1654
g11
I00
sg19
I01
sg37
g1643
sg20
I00
sbsg38
(lp1655
g708
ag1529
asbsbsI30066128
g952
sI31269392
g1208
sI31301968
g0
(cFWCore.ParameterSet.SequenceTypes
Path
p1656
g2
Ntp1657
Rp1658
(dp1659
g11
I00
sS'_seq'
p1660
g0
(cFWCore.ParameterSet.SequenceTypes
_SequenceCollection
p1661
g2
Ntp1662
Rp1663
(dp1664
S'_collection'
p1665
(lp1666
g880
ag451
ag255
asbsg20
I00
sg448
S'p'
p1667
sbsI29996752
g1036
sI30066448
g683
sI30070800
g491
sI30038096
g1520
sI29997328
g1365
sI29997392
g1493
sI30038416
g1012
sI30038544
g805
sI31285072
g255
sI30071440
g1294
sI31271248
g1070
sI29996368
g1346
sI31271888
g1156
sI31281936
g1251
sI30072080
g969
sI30039888
g0
(g681
g2
Ntp1668
Rp1669
(dp1670
g38
(lp1671
S'PreFilter'
p1672
ag809
aS'NSigmaInside'
p1673
asg11
I00
sg20
I00
sg69
g70
sg809
g0
(g164
g2
Ntp1674
Rp1675
(dp1676
g11
I00
sg19
I01
sg37
S'StandardMatcher'
p1677
sg20
I00
sbsg1672
g0
(g33
g2
Ntp1678
Rp1679
(dp1680
g11
I00
sg19
I01
sg37
I00
sg20
I00
sbsg40
I40
sg1673
g0
(g258
g2
Ntp1681
Rp1682
(dp1683
g11
I00
sg19
I01
sg37
F3.0
sg20
I00
sbsg448
S'SiStripRecHitMatcherESProducer'
p1684
sg46
g1684
sbsI31272400
g585
sI31270608
g554
sI30068432
g1471
sI30068496
g0
(g681
g2
Ntp1685
Rp1686
(dp1687
g38
(lp1688
g1502
aS'correctors'
p1689
asg11
I00
sg1502
g0
(g33
g2
Ntp1690
Rp1691
(dp1692
g11
I00
sg19
I00
sg37
I01
sg20
I00
sbsg20
I00
sg40
I40
sg69
g70
sg1689
g0
(g13
g14
(lp1693
g1497
ag950
ag1469
atp1694
Rp1695
(dp1696
g11
I00
sg19
I01
sg20
I00
sg21
I1
sbsg448
g351
sg46
S'JetCorrectionESChain'
p1697
sbsI30072656
g517
sI29978576
g620
sI30040016
g0
(g681
g2
Ntp1698
Rp1699
(dp1700
g38
(lp1701
sg11
I00
sg20
I00
sg40
I40
sg69
g70
sg448
S'sistripconn'
p1702
sg46
S'SiStripConnectivity'
p1703
sbsI31281296
g898
sI29995152
g1416
sI30064912
g1337
sI30007152
g614
sI30065040
g1199
sI30065168
g1483
sI30065296
g0
(g681
g2
Ntp1704
Rp1705
(dp1706
g38
(lp1707
g691
asg11
I00
sg20
I01
sg40
I40
sg69
g70
sg691
g0
(g488
g14
(lp1708
g0
(g28
g2
Ntp1709
Rp1710
(dp1711
g11
I00
sg19
I01
sg20
I00
sg708
g0
(g164
g2
Ntp1712
Rp1713
(dp1714
g11
I00
sg19
I01
sg37
S'SiPixelQualityFromDbRcd'
p1715
sg20
I00
sbsg713
g0
(g164
g2
Ntp1716
Rp1717
(dp1718
g11
I00
sg19
I01
sg37
g382
sg20
I00
sbsg38
(lp1719
g708
ag713
asbag0
(g28
g2
Ntp1720
Rp1721
(dp1722
g11
I00
sg19
I01
sg20
I00
sg708
g0
(g164
g2
Ntp1723
Rp1724
(dp1725
g11
I00
sg19
I01
sg37
S'SiPixelDetVOffRcd'
p1726
sg20
I00
sbsg713
g0
(g164
g2
Ntp1727
Rp1728
(dp1729
g11
I00
sg19
I01
sg37
g382
sg20
I00
sbsg38
(lp1730
g708
ag713
asbatp1731
Rp1732
(dp1733
g11
I00
sg19
I01
sg20
I00
sg21
I1
sbsg448
S'siPixelQualityESProducer'
p1734
sg46
S'SiPixelQualityESProducer'
p1735
sbsI30069520
g451
ssg1068
g1070
sg1615
g1565
sg670
g672
sg1206
g1208
sg1702
g1699
sS'_Process__esprefers'
p1736
(dp1737
g1490
g1493
ssg1684
g1669
sS'_Process__schedule'
p1738
NsS'_Process__partialschedules'
p1739
(dp1740
sS'_Process__outputmodules'
p1741
(dp1742
sS'_Process__analyzers'
p1743
(dp1744
g252
g255
ssS'_Process__InExtendCall'
p1745
I00
sg1292
g1294
sg1633
g1618
sS'_Process__modifiers'
p1746
(tsS'_Process__producers'
p1747
(dp1748
g878
g880
sg403
g451
ssg1734
g1705
sg1414
g1416
sS'_Process__filters'
p1749
(dp1750
sg351
g1686
sS'_Process__looper'
p1751
Nsg1249
g1251
sS'_Process__endpaths'
p1752
g0
(cFWCore.ParameterSet.DictTypes
SortedKeysDict
p1753
c__builtin__
dict
p1754
(dp1755
tp1756
Rp1757
(dp1758
S'list'
p1759
(lp1760
sbsS'_Process__esproducers'
p1761
(dp1762
g1633
g1618
sg1010
g1012
sg1684
g1669
sg1734
g1705
sg1344
g1346
sg1615
g1565
sg1702
g1699
sg803
g805
sg1469
g1471
sg1481
g1483
sg1027
g1029
sg1518
g1520
sg680
g683
sg950
g952
sg351
g1686
sg1497
g1499
ssg1667
g1658
sS'_Process__paths'
p1763
g0
(g1753
g1754
(dp1764
g1667
g1658
stp1765
Rp1766
(dp1767
g1759
(lp1768
g1667
asbsg1111
g1113
sg612
g585
sg583
g554
sS'_Process__subProcess'
p1769
Nsg1335
g1337
sS'_Process__isStrict'
p1770
I00
sb.